; Function Attrs: nofree norecurse nosync nounwind memory(read, argmem: readwrite, inaccessiblemem: none) uwtable
define range(i32 0, 2) i32 @WebPDemuxGetFrame(ptr noundef %0, i32 noundef %1, ptr noundef writeonly captures(address_is_null) %2) local_unnamed_addr #5 {
  %4 = icmp eq ptr %2, null
  br i1 %4, label %SetFrame.exit, label %5

5:                                                ; preds = %3
  tail call void @llvm.memset.p0.i64(ptr noundef nonnull align 8 dereferenceable(80) %2, i8 0, i64 72, i1 false)
  %6 = getelementptr inbounds nuw i8, ptr %2, i64 72
  store ptr %0, ptr %6, align 8, !tbaa !56
  %7 = icmp eq ptr %0, null
  %8 = icmp slt i32 %1, 0
  %or.cond.i = or i1 %7, %8
  br i1 %or.cond.i, label %SetFrame.exit, label %9

9:                                                ; preds = %5
  %10 = getelementptr inbounds nuw i8, ptr %0, i64 68
  %11 = load i32, ptr %10, align 4, !tbaa !44
  %12 = icmp sgt i32 %1, %11
  br i1 %12, label %SetFrame.exit, label %13

13:                                               ; preds = %9
  %14 = icmp eq i32 %1, 0
  %spec.select.i = select i1 %14, i32 %11, i32 %1
  br label %15

15:                                               ; preds = %16, %13
  %.pn.i.i = phi ptr [ %0, %13 ], [ %.0.i.i, %16 ]
  %.0.in.i.i = getelementptr inbounds nuw i8, ptr %.pn.i.i, i64 72
  %.0.i.i = load ptr, ptr %.0.in.i.i, align 8, !tbaa !41
  %.not.i.i = icmp eq ptr %.0.i.i, null
  br i1 %.not.i.i, label %SetFrame.exit, label %16

16:                                               ; preds = %15
  %17 = getelementptr inbounds nuw i8, ptr %.0.i.i, i64 32
  %18 = load i32, ptr %17, align 8, !tbaa !39
  %19 = icmp eq i32 %spec.select.i, %18
  br i1 %19, label %GetFrame.exit.i, label %15, !llvm.loop !58

GetFrame.exit.i:                                  ; preds = %16
  %20 = getelementptr inbounds nuw i8, ptr %0, i64 32
  %21 = load ptr, ptr %20, align 8, !tbaa !59
  %22 = getelementptr inbounds nuw i8, ptr %.0.i.i, i64 40
  %23 = load i64, ptr %22, align 8, !tbaa !28
  %24 = getelementptr inbounds nuw i8, ptr %.0.i.i, i64 48
  %25 = load i64, ptr %24, align 8, !tbaa !30
  %26 = getelementptr inbounds nuw i8, ptr %.0.i.i, i64 64
  %27 = load i64, ptr %26, align 8, !tbaa !30
  %.not.i.i.i = icmp eq i64 %27, 0
  br i1 %.not.i.i.i, label %GetFramePayload.exit.i.i, label %28

28:                                               ; preds = %GetFrame.exit.i
  %29 = getelementptr inbounds nuw i8, ptr %.0.i.i, i64 56
  %.not22.i.i.i = icmp eq i64 %23, 0
  %.pre.i.i.i = load i64, ptr %29, align 8, !tbaa !28
  %30 = add i64 %27, %.pre.i.i.i
  %31 = sub i64 %23, %30
  %32 = select i1 %.not22.i.i.i, i64 0, i64 %31
  %33 = add i64 %27, %25
  %34 = add i64 %33, %32
  br label %GetFramePayload.exit.i.i

GetFramePayload.exit.i.i:                         ; preds = %28, %GetFrame.exit.i
  %.030.i.i = phi i64 [ %25, %GetFrame.exit.i ], [ %34, %28 ]
  %.018.i.i.i = phi i64 [ %23, %GetFrame.exit.i ], [ %.pre.i.i.i, %28 ]
  %35 = icmp eq ptr %21, null
  br i1 %35, label %SetFrame.exit, label %36

36:                                               ; preds = %GetFramePayload.exit.i.i
  %37 = getelementptr inbounds nuw i8, ptr %21, i64 %.018.i.i.i
  store i32 %spec.select.i, ptr %2, align 8, !tbaa !60
  %38 = getelementptr inbounds nuw i8, ptr %2, i64 4
  store i32 %11, ptr %38, align 4, !tbaa !61
  %39 = load i32, ptr %.0.i.i, align 8, !tbaa !62
  %40 = getelementptr inbounds nuw i8, ptr %2, i64 8
  store i32 %39, ptr %40, align 8, !tbaa !63
  %41 = getelementptr inbounds nuw i8, ptr %.0.i.i, i64 4
  %42 = load i32, ptr %41, align 4, !tbaa !64
  %43 = getelementptr inbounds nuw i8, ptr %2, i64 12
  store i32 %42, ptr %43, align 4, !tbaa !65
  %44 = getelementptr inbounds nuw i8, ptr %.0.i.i, i64 8
  %45 = load i32, ptr %44, align 8, !tbaa !33
  %46 = getelementptr inbounds nuw i8, ptr %2, i64 16
  store i32 %45, ptr %46, align 8, !tbaa !66
  %47 = getelementptr inbounds nuw i8, ptr %.0.i.i, i64 12
  %48 = load i32, ptr %47, align 4, !tbaa !36
  %49 = getelementptr inbounds nuw i8, ptr %2, i64 20
  store i32 %48, ptr %49, align 4, !tbaa !67
  %50 = getelementptr inbounds nuw i8, ptr %.0.i.i, i64 16
  %51 = load i32, ptr %50, align 8, !tbaa !38
  %52 = getelementptr inbounds nuw i8, ptr %2, i64 56
  store i32 %51, ptr %52, align 8, !tbaa !68
  %53 = getelementptr inbounds nuw i8, ptr %.0.i.i, i64 20
  %54 = load i32, ptr %53, align 4, !tbaa !69
  %55 = getelementptr inbounds nuw i8, ptr %2, i64 24
  store i32 %54, ptr %55, align 8, !tbaa !70
  %56 = getelementptr inbounds nuw i8, ptr %.0.i.i, i64 24
  %57 = load i32, ptr %56, align 8, !tbaa !71
  %58 = getelementptr inbounds nuw i8, ptr %2, i64 28
  store i32 %57, ptr %58, align 4, !tbaa !72
  %59 = getelementptr inbounds nuw i8, ptr %.0.i.i, i64 28
  %60 = load i32, ptr %59, align 4, !tbaa !73
  %61 = getelementptr inbounds nuw i8, ptr %2, i64 60
  store i32 %60, ptr %61, align 4, !tbaa !74
  %62 = getelementptr inbounds nuw i8, ptr %.0.i.i, i64 36
  %63 = load i32, ptr %62, align 4, !tbaa !40
  %64 = getelementptr inbounds nuw i8, ptr %2, i64 32
  store i32 %63, ptr %64, align 8, !tbaa !75
  %65 = getelementptr inbounds nuw i8, ptr %2, i64 40
  store ptr %37, ptr %65, align 8, !tbaa !76
  %66 = getelementptr inbounds nuw i8, ptr %2, i64 48
  store i64 %.030.i.i, ptr %66, align 8, !tbaa !77
  br label %SetFrame.exit

SetFrame.exit:                                    ; preds = %15, %36, %GetFramePayload.exit.i.i, %9, %5, %3
  %.0 = phi i32 [ 0, %3 ], [ 0, %5 ], [ 0, %9 ], [ 1, %36 ], [ 0, %GetFramePayload.exit.i.i ], [ 0, %15 ]
  ret i32 %.0
}